; Function Attrs: mustprogress nofree norecurse nosync nounwind willreturn memory(readwrite, inaccessiblemem: none) uwtable
define internal range(i32 -38, 1) i32 @read_seek(ptr noundef readonly captures(none) %0, i32 %1, i64 noundef %2, i32 noundef %3) #2 {
  %5 = getelementptr inbounds nuw i8, ptr %0, i64 24
  %6 = load ptr, ptr %5, align 8, !tbaa !12
  %7 = and i32 %3, 10
  %or.cond = icmp eq i32 %7, 0
  br i1 %or.cond, label %8, label %16

8:                                                ; preds = %4
  %9 = getelementptr inbounds nuw i8, ptr %0, i64 32
  %10 = load ptr, ptr %9, align 8, !tbaa !27
  %11 = getelementptr inbounds nuw i8, ptr %10, i64 144
  %12 = load i32, ptr %11, align 8, !tbaa !79
  %13 = and i32 %12, 1
  %.not7 = icmp eq i32 %13, 0
  br i1 %.not7, label %16, label %14

14:                                               ; preds = %8
  %15 = getelementptr inbounds nuw i8, ptr %6, i64 824
  store i64 %2, ptr %15, align 8, !tbaa !72
  br label %16

16:                                               ; preds = %8, %4, %14
  %.0 = phi i32 [ 0, %14 ], [ -38, %4 ], [ -5, %8 ]
  ret i32 %.0
}